; ModuleID = '56/354.c'
source_filename = "56/354.c"
target datalayout = "e-m:e-p270:32:32-p271:32:32-p272:64:64-i64:64-f80:128-n8:16:32:64-S128"
target triple = "x86_64-pc-linux-gnu"

@.str = private unnamed_addr constant [3 x i8] c"%d\00", align 1
@.str.1 = private unnamed_addr constant [4 x i8] c"%d\0A\00", align 1

; Function Attrs: noinline nounwind uwtable
define dso_local i32 @main() #0 {
  %1 = alloca i32, align 4
  %2 = alloca i32, align 4
  %3 = alloca i32, align 4
  %4 = alloca i32, align 4
  %5 = alloca i32, align 4
  %6 = alloca i32, align 4
  %7 = alloca i32, align 4
  %8 = alloca i32, align 4
  store i32 0, i32* %1, align 4
  %9 = call i32 (i8*, ...) @__isoc99_scanf(i8* getelementptr inbounds ([3 x i8], [3 x i8]* @.str, i64 0, i64 0), i32* %7)
  %10 = load i32, i32* %7, align 4
  %11 = sdiv i32 %10, 10000
  store i32 %11, i32* %2, align 4
  %12 = load i32, i32* %7, align 4
  %13 = srem i32 %12, 10000
  %14 = sdiv i32 %13, 1000
  store i32 %14, i32* %3, align 4
  %15 = load i32, i32* %7, align 4
  %16 = srem i32 %15, 1000
  %17 = sdiv i32 %16, 100
  store i32 %17, i32* %4, align 4
  %18 = load i32, i32* %7, align 4
  %19 = srem i32 %18, 100
  %20 = sdiv i32 %19, 10
  store i32 %20, i32* %5, align 4
  %21 = load i32, i32* %7, align 4
  %22 = srem i32 %21, 10
  store i32 %22, i32* %6, align 4
  %23 = load i32, i32* %7, align 4
  %24 = icmp sge i32 %23, 10000
  br i1 %24, label %25, label %40

25:                                               ; preds = %0
  %26 = load i32, i32* %6, align 4
  %27 = mul nsw i32 10000, %26
  %28 = load i32, i32* %5, align 4
  %29 = mul nsw i32 1000, %28
  %30 = add nsw i32 %27, %29
  %31 = load i32, i32* %4, align 4
  %32 = mul nsw i32 100, %31
  %33 = add nsw i32 %30, %32
  %34 = load i32, i32* %3, align 4
  %35 = mul nsw i32 10, %34
  %36 = add nsw i32 %33, %35
  %37 = load i32, i32* %2, align 4
  %38 = add nsw i32 %36, %37
  %39 = call i32 (i8*, ...) @printf(i8* getelementptr inbounds ([4 x i8], [4 x i8]* @.str.1, i64 0, i64 0), i32 %38)
  br label %84

40:                                               ; preds = %0
  %41 = load i32, i32* %7, align 4
  %42 = icmp sge i32 %41, 1000
  br i1 %42, label %43, label %55

43:                                               ; preds = %40
  %44 = load i32, i32* %6, align 4
  %45 = mul nsw i32 1000, %44
  %46 = load i32, i32* %5, align 4
  %47 = mul nsw i32 100, %46
  %48 = add nsw i32 %45, %47
  %49 = load i32, i32* %4, align 4
  %50 = mul nsw i32 10, %49
  %51 = add nsw i32 %48, %50
  %52 = load i32, i32* %3, align 4
  %53 = add nsw i32 %51, %52
  %54 = call i32 (i8*, ...) @printf(i8* getelementptr inbounds ([4 x i8], [4 x i8]* @.str.1, i64 0, i64 0), i32 %53)
  br label %83

55:                                               ; preds = %40
  %56 = load i32, i32* %7, align 4
  %57 = icmp sge i32 %56, 100
  br i1 %57, label %58, label %68

58:                                               ; preds = %55
  %59 = load i32, i32* %6, align 4
  %60 = mul nsw i32 100, %59
  %61 = load i32, i32* %5, align 4
  %62 = mul nsw i32 10, %61
  %63 = add nsw i32 %60, %62
  %64 = load i32, i32* %4, align 4
  %65 = mul nsw i32 1, %64
  %66 = add nsw i32 %63, %65
  %67 = call i32 (i8*, ...) @printf(i8* getelementptr inbounds ([4 x i8], [4 x i8]* @.str.1, i64 0, i64 0), i32 %66)
  br label %82

68:                                               ; preds = %55
  %69 = load i32, i32* %7, align 4
  %70 = icmp sge i32 %69, 10
  br i1 %70, label %71, label %78

71:                                               ; preds = %68
  %72 = load i32, i32* %6, align 4
  %73 = mul nsw i32 10, %72
  %74 = load i32, i32* %5, align 4
  %75 = mul nsw i32 1, %74
  %76 = add nsw i32 %73, %75
  %77 = call i32 (i8*, ...) @printf(i8* getelementptr inbounds ([4 x i8], [4 x i8]* @.str.1, i64 0, i64 0), i32 %76)
  br label %81

78:                                               ; preds = %68
  %79 = load i32, i32* %6, align 4
  %80 = call i32 (i8*, ...) @printf(i8* getelementptr inbounds ([4 x i8], [4 x i8]* @.str.1, i64 0, i64 0), i32 %79)
  br label %81

81:                                               ; preds = %78, %71
  br label %82

82:                                               ; preds = %81, %58
  br label %83

83:                                               ; preds = %82, %43
  br label %84

84:                                               ; preds = %83, %25
  ret i32 0
}

declare dso_local i32 @__isoc99_scanf(i8*, ...) #1

declare dso_local i32 @printf(i8*, ...) #1


!llvm.module.flags = !{!0}
!llvm.ident = !{!1}

!0 = !{i32 1, !"wchar_size", i32 4}
!1 = !{!"clang version 10.0.0-4ubuntu1 "}
